; Function Attrs: mustprogress nofree nounwind willreturn memory(readwrite, inaccessiblemem: write) uwtable
define noundef double @_ZNK10open_spiel10algorithms10SearchNode9PUCTValueEid(ptr noundef nonnull readonly align 8 captures(none) dereferenceable(80) %0, i32 noundef %1, double noundef %2) local_unnamed_addr #6 align 2 {
  %4 = getelementptr inbounds nuw i8, ptr %0, i64 32
  %5 = load ptr, ptr %4, align 8
  %6 = getelementptr inbounds nuw i8, ptr %0, i64 40
  %7 = load ptr, ptr %6, align 8
  %8 = icmp eq ptr %5, %7
  br i1 %8, label %15, label %9

9:                                                ; preds = %3
  %10 = getelementptr inbounds nuw i8, ptr %0, i64 16
  %11 = load i32, ptr %10, align 8
  %12 = sext i32 %11 to i64
  %13 = getelementptr inbounds double, ptr %5, i64 %12
  %14 = load double, ptr %13, align 8
  br label %34

15:                                               ; preds = %3
  %16 = getelementptr inbounds nuw i8, ptr %0, i64 20
  %17 = load i32, ptr %16, align 4
  %.not = icmp eq i32 %17, 0
  %18 = getelementptr inbounds nuw i8, ptr %0, i64 24
  %19 = load double, ptr %18, align 8
  %20 = sitofp i32 %17 to double
  %21 = fdiv double %19, %20
  %22 = select i1 %.not, double 0.000000e+00, double %21
  %23 = getelementptr inbounds nuw i8, ptr %0, i64 8
  %24 = load double, ptr %23, align 8
  %25 = fmul double %2, %24
  %26 = sitofp i32 %1 to double
  %27 = tail call noundef double @sqrt(double noundef %26) #29
  %28 = fmul double %25, %27
  %29 = load i32, ptr %16, align 4
  %30 = add nsw i32 %29, 1
  %31 = sitofp i32 %30 to double
  %32 = fdiv double %28, %31
  %33 = fadd double %22, %32
  br label %34

34:                                               ; preds = %15, %9
  %.0 = phi double [ %33, %15 ], [ %14, %9 ]
  ret double %.0
}